; Function Attrs: nounwind uwtable
define dso_local i32 @topology_g_topology_print(ptr noundef readonly captures(none) %0, ptr noundef %1, ptr noundef %2) local_unnamed_addr #0 {
  %4 = getelementptr inbounds nuw i8, ptr %0, i64 8
  %5 = load i32, ptr %4, align 8
  %6 = load i32, ptr @active_topo_id, align 4
  %.not = icmp eq i32 %5, %6
  br i1 %.not, label %7, label %11

7:                                                ; preds = %3
  %8 = load ptr, ptr getelementptr inbounds nuw (i8, ptr @ops, i64 88), align 8
  %9 = load ptr, ptr %0, align 8
  %10 = tail call i32 %8(ptr noundef %9, ptr noundef %1, ptr noundef %2) #9
  br label %11

11:                                               ; preds = %3, %7
  %.0 = phi i32 [ %10, %7 ], [ -1, %3 ]
  ret i32 %.0
}